target datalayout = "e-m:e-p270:32:32-p271:32:32-p272:64:64-i64:64-i128:128-f80:128-n8:16:32:64-S128"
target triple = "x86_64-pc-linux-gnu"

%struct.GrayOnlyParams = type { ptr, ptr }

; Function Attrs: nounwind uwtable
define internal i32 @is_cmyk_devicelink(ptr noundef %0) #0 {
  %2 = alloca ptr, align 8
  store ptr %0, ptr %2, align 8
  %3 = load ptr, ptr %2, align 8
  %4 = call i32 @cmsGetDeviceClass(ptr noundef %3)
  %5 = icmp eq i32 %4, 1818848875
  br i1 %5, label %6, label %14

6:                                                ; preds = %1
  %7 = load ptr, ptr %2, align 8
  %8 = call i32 @cmsGetColorSpace(ptr noundef %7)
  %9 = icmp eq i32 %8, 1129142603
  br i1 %9, label %10, label %14

10:                                               ; preds = %6
  %11 = load ptr, ptr %2, align 8
  %12 = call i32 @cmsGetColorSpace(ptr noundef %11)
  %13 = icmp eq i32 %12, 1129142603
  br label %14

14:                                               ; preds = %10, %6, %1
  %15 = phi i1 [ false, %6 ], [ false, %1 ], [ %13, %10 ]
  %16 = zext i1 %15 to i32
  ret i32 %16
}

; Function Attrs: nounwind uwtable
define internal i32 @TranslateNonICCIntents(i32 noundef %0) #0 {
  %2 = alloca i32, align 4
  %3 = alloca i32, align 4
  store i32 %0, ptr %3, align 4
  %4 = load i32, ptr %3, align 4
  switch i32 %4, label %8 [
    i32 10, label %5
    i32 13, label %5
    i32 11, label %6
    i32 14, label %6
    i32 12, label %7
    i32 15, label %7
  ]

5:                                                ; preds = %1, %1
  store i32 0, ptr %2, align 4
  br label %10

6:                                                ; preds = %1, %1
  store i32 1, ptr %2, align 4
  br label %10

7:                                                ; preds = %1, %1
  store i32 2, ptr %2, align 4
  br label %10

8:                                                ; preds = %1
  %9 = load i32, ptr %3, align 4
  store i32 %9, ptr %2, align 4
  br label %10

10:                                               ; preds = %8, %7, %6, %5
  %11 = load i32, ptr %2, align 4
  ret i32 %11
}

; Function Attrs: nounwind uwtable
define internal ptr @BlackPreservingKOnlyIntents(ptr noundef %0, i32 noundef %1, ptr noundef %2, ptr noundef %3, ptr noundef %4, ptr noundef %5, i32 noundef %6) #0 {
  %8 = alloca ptr, align 8
  %9 = alloca ptr, align 8
  %10 = alloca i32, align 4
  %11 = alloca ptr, align 8
  %12 = alloca ptr, align 8
  %13 = alloca ptr, align 8
  %14 = alloca ptr, align 8
  %15 = alloca i32, align 4
  %16 = alloca %struct.GrayOnlyParams, align 8
  %17 = alloca ptr, align 8
  %18 = alloca [256 x i32], align 16
  %19 = alloca ptr, align 8
  %20 = alloca i32, align 4
  %21 = alloca i32, align 4
  %22 = alloca i32, align 4
  %23 = alloca i32, align 4
  %24 = alloca ptr, align 8
  %25 = alloca ptr, align 8
  store ptr %0, ptr %9, align 8
  store i32 %1, ptr %10, align 4
  store ptr %2, ptr %11, align 8
  store ptr %3, ptr %12, align 8
  store ptr %4, ptr %13, align 8
  store ptr %5, ptr %14, align 8
  store i32 %6, ptr %15, align 4
  %26 = load i32, ptr %10, align 4
  %27 = icmp ult i32 %26, 1
  br i1 %27, label %31, label %28

28:                                               ; preds = %7
  %29 = load i32, ptr %10, align 4
  %30 = icmp ugt i32 %29, 255
  br i1 %30, label %31, label %32

31:                                               ; preds = %28, %7
  store ptr null, ptr %8, align 8
  br label %209

32:                                               ; preds = %28
  store i32 0, ptr %20, align 4
  br label %33

33:                                               ; preds = %47, %32
  %34 = load i32, ptr %20, align 4
  %35 = load i32, ptr %10, align 4
  %36 = icmp ult i32 %34, %35
  br i1 %36, label %37, label %50

37:                                               ; preds = %33
  %38 = load ptr, ptr %11, align 8
  %39 = load i32, ptr %20, align 4
  %40 = zext i32 %39 to i64
  %41 = getelementptr inbounds i32, ptr %38, i64 %40
  %42 = load i32, ptr %41, align 4
  %43 = call i32 @TranslateNonICCIntents(i32 noundef %42)
  %44 = load i32, ptr %20, align 4
  %45 = zext i32 %44 to i64
  %46 = getelementptr inbounds [256 x i32], ptr %18, i64 0, i64 %45
  store i32 %43, ptr %46, align 4
  br label %47

47:                                               ; preds = %37
  %48 = load i32, ptr %20, align 4
  %49 = add i32 %48, 1
  store i32 %49, ptr %20, align 4
  br label %33, !llvm.loop !17

50:                                               ; preds = %33
  %51 = load i32, ptr %10, align 4
  %52 = sub i32 %51, 1
  store i32 %52, ptr %22, align 4
  %53 = load ptr, ptr %12, align 8
  %54 = load i32, ptr %22, align 4
  %55 = zext i32 %54 to i64
  %56 = getelementptr inbounds ptr, ptr %53, i64 %55
  %57 = load ptr, ptr %56, align 8
  store ptr %57, ptr %24, align 8
  br label %58

58:                                               ; preds = %66, %50
  %59 = load ptr, ptr %24, align 8
  %60 = call i32 @is_cmyk_devicelink(ptr noundef %59)
  %61 = icmp ne i32 %60, 0
  br i1 %61, label %62, label %73

62:                                               ; preds = %58
  %63 = load i32, ptr %22, align 4
  %64 = icmp ult i32 %63, 2
  br i1 %64, label %65, label %66

65:                                               ; preds = %62
  br label %73

66:                                               ; preds = %62
  %67 = load ptr, ptr %12, align 8
  %68 = load i32, ptr %22, align 4
  %69 = add i32 %68, -1
  store i32 %69, ptr %22, align 4
  %70 = zext i32 %69 to i64
  %71 = getelementptr inbounds ptr, ptr %67, i64 %70
  %72 = load ptr, ptr %71, align 8
  store ptr %72, ptr %24, align 8
  br label %58, !llvm.loop !18

73:                                               ; preds = %65, %58
  %74 = load i32, ptr %22, align 4
  %75 = add i32 %74, 1
  store i32 %75, ptr %23, align 4
  %76 = load ptr, ptr %12, align 8
  %77 = getelementptr inbounds ptr, ptr %76, i64 0
  %78 = load ptr, ptr %77, align 8
  %79 = call i32 @cmsGetColorSpace(ptr noundef %78)
  %80 = icmp ne i32 %79, 1129142603
  br i1 %80, label %89, label %81

81:                                               ; preds = %73
  %82 = load ptr, ptr %24, align 8
  %83 = call i32 @cmsGetColorSpace(ptr noundef %82)
  %84 = icmp eq i32 %83, 1129142603
  br i1 %84, label %98, label %85

85:                                               ; preds = %81
  %86 = load ptr, ptr %24, align 8
  %87 = call i32 @cmsGetDeviceClass(ptr noundef %86)
  %88 = icmp eq i32 %87, 1886549106
  br i1 %88, label %98, label %89

89:                                               ; preds = %85, %73
  %90 = load ptr, ptr %9, align 8
  %91 = load i32, ptr %10, align 4
  %92 = getelementptr inbounds [256 x i32], ptr %18, i64 0, i64 0
  %93 = load ptr, ptr %12, align 8
  %94 = load ptr, ptr %13, align 8
  %95 = load ptr, ptr %14, align 8
  %96 = load i32, ptr %15, align 4
  %97 = call ptr @DefaultICCintents(ptr noundef %90, i32 noundef %91, ptr noundef %92, ptr noundef %93, ptr noundef %94, ptr noundef %95, i32 noundef %96)
  store ptr %97, ptr %8, align 8
  br label %209

98:                                               ; preds = %85, %81
  %99 = load ptr, ptr %9, align 8
  %100 = call ptr @cmsPipelineAlloc(ptr noundef %99, i32 noundef 4, i32 noundef 4)
  store ptr %100, ptr %17, align 8
  %101 = load ptr, ptr %17, align 8
  %102 = icmp eq ptr %101, null
  br i1 %102, label %103, label %104

103:                                              ; preds = %98
  store ptr null, ptr %8, align 8
  br label %209

104:                                              ; preds = %98
  call void @llvm.memset.p0.i64(ptr align 8 %16, i8 0, i64 16, i1 false)
  %105 = load ptr, ptr %9, align 8
  %106 = load i32, ptr %23, align 4
  %107 = getelementptr inbounds [256 x i32], ptr %18, i64 0, i64 0
  %108 = load ptr, ptr %12, align 8
  %109 = load ptr, ptr %13, align 8
  %110 = load ptr, ptr %14, align 8
  %111 = load i32, ptr %15, align 4
  %112 = call ptr @DefaultICCintents(ptr noundef %105, i32 noundef %106, ptr noundef %107, ptr noundef %108, ptr noundef %109, ptr noundef %110, i32 noundef %111)
  %113 = getelementptr inbounds %struct.GrayOnlyParams, ptr %16, i32 0, i32 0
  store ptr %112, ptr %113, align 8
  %114 = getelementptr inbounds %struct.GrayOnlyParams, ptr %16, i32 0, i32 0
  %115 = load ptr, ptr %114, align 8
  %116 = icmp eq ptr %115, null
  br i1 %116, label %117, label %118

117:                                              ; preds = %104
  br label %189

118:                                              ; preds = %104
  %119 = load ptr, ptr %9, align 8
  %120 = load i32, ptr %23, align 4
  %121 = getelementptr inbounds [256 x i32], ptr %18, i64 0, i64 0
  %122 = load ptr, ptr %12, align 8
  %123 = load ptr, ptr %13, align 8
  %124 = load ptr, ptr %14, align 8
  %125 = load i32, ptr %15, align 4
  %126 = call ptr @_cmsBuildKToneCurve(ptr noundef %119, i32 noundef 4096, i32 noundef %120, ptr noundef %121, ptr noundef %122, ptr noundef %123, ptr noundef %124, i32 noundef %125)
  %127 = getelementptr inbounds %struct.GrayOnlyParams, ptr %16, i32 0, i32 1
  store ptr %126, ptr %127, align 8
  %128 = getelementptr inbounds %struct.GrayOnlyParams, ptr %16, i32 0, i32 1
  %129 = load ptr, ptr %128, align 8
  %130 = icmp eq ptr %129, null
  br i1 %130, label %131, label %132

131:                                              ; preds = %118
  br label %189

132:                                              ; preds = %118
  %133 = load i32, ptr %15, align 4
  %134 = call i32 @_cmsReasonableGridpointsByColorspace(i32 noundef 1129142603, i32 noundef %133)
  store i32 %134, ptr %21, align 4
  %135 = load ptr, ptr %9, align 8
  %136 = load i32, ptr %21, align 4
  %137 = call ptr @cmsStageAllocCLut16bit(ptr noundef %135, i32 noundef %136, i32 noundef 4, i32 noundef 4, ptr noundef null)
  store ptr %137, ptr %19, align 8
  %138 = load ptr, ptr %19, align 8
  %139 = icmp eq ptr %138, null
  br i1 %139, label %140, label %141

140:                                              ; preds = %132
  br label %189

141:                                              ; preds = %132
  %142 = load ptr, ptr %17, align 8
  %143 = load ptr, ptr %19, align 8
  %144 = call i32 @cmsPipelineInsertStage(ptr noundef %142, i32 noundef 0, ptr noundef %143)
  %145 = icmp ne i32 %144, 0
  br i1 %145, label %147, label %146

146:                                              ; preds = %141
  br label %189

147:                                              ; preds = %141
  %148 = load ptr, ptr %19, align 8
  %149 = call i32 @cmsStageSampleCLut16bit(ptr noundef %148, ptr noundef @BlackPreservingGrayOnlySampler, ptr noundef %16, i32 noundef 0)
  %150 = icmp ne i32 %149, 0
  br i1 %150, label %152, label %151

151:                                              ; preds = %147
  br label %189

152:                                              ; preds = %147
  %153 = load i32, ptr %22, align 4
  %154 = add i32 %153, 1
  store i32 %154, ptr %20, align 4
  br label %155

155:                                              ; preds = %180, %152
  %156 = load i32, ptr %20, align 4
  %157 = load i32, ptr %10, align 4
  %158 = icmp ult i32 %156, %157
  br i1 %158, label %159, label %183

159:                                              ; preds = %155
  %160 = load ptr, ptr %12, align 8
  %161 = load i32, ptr %20, align 4
  %162 = zext i32 %161 to i64
  %163 = getelementptr inbounds ptr, ptr %160, i64 %162
  %164 = load ptr, ptr %163, align 8
  %165 = load i32, ptr %20, align 4
  %166 = zext i32 %165 to i64
  %167 = getelementptr inbounds [256 x i32], ptr %18, i64 0, i64 %166
  %168 = load i32, ptr %167, align 4
  %169 = call ptr @_cmsReadDevicelinkLUT(ptr noundef %164, i32 noundef %168)
  store ptr %169, ptr %25, align 8
  %170 = load ptr, ptr %25, align 8
  %171 = icmp eq ptr %170, null
  br i1 %171, label %172, label %173

172:                                              ; preds = %159
  br label %189

173:                                              ; preds = %159
  %174 = load ptr, ptr %17, align 8
  %175 = load ptr, ptr %25, align 8
  %176 = call i32 @cmsPipelineCat(ptr noundef %174, ptr noundef %175)
  %177 = icmp ne i32 %176, 0
  br i1 %177, label %179, label %178

178:                                              ; preds = %173
  br label %189

179:                                              ; preds = %173
  br label %180

180:                                              ; preds = %179
  %181 = load i32, ptr %20, align 4
  %182 = add i32 %181, 1
  store i32 %182, ptr %20, align 4
  br label %155, !llvm.loop !19

183:                                              ; preds = %155
  %184 = getelementptr inbounds %struct.GrayOnlyParams, ptr %16, i32 0, i32 0
  %185 = load ptr, ptr %184, align 8
  call void @cmsPipelineFree(ptr noundef %185)
  %186 = getelementptr inbounds %struct.GrayOnlyParams, ptr %16, i32 0, i32 1
  %187 = load ptr, ptr %186, align 8
  call void @cmsFreeToneCurve(ptr noundef %187)
  %188 = load ptr, ptr %17, align 8
  store ptr %188, ptr %8, align 8
  br label %209

189:                                              ; preds = %178, %172, %151, %146, %140, %131, %117
  %190 = getelementptr inbounds %struct.GrayOnlyParams, ptr %16, i32 0, i32 0
  %191 = load ptr, ptr %190, align 8
  %192 = icmp ne ptr %191, null
  br i1 %192, label %193, label %196

193:                                              ; preds = %189
  %194 = getelementptr inbounds %struct.GrayOnlyParams, ptr %16, i32 0, i32 0
  %195 = load ptr, ptr %194, align 8
  call void @cmsPipelineFree(ptr noundef %195)
  br label %196

196:                                              ; preds = %193, %189
  %197 = getelementptr inbounds %struct.GrayOnlyParams, ptr %16, i32 0, i32 1
  %198 = load ptr, ptr %197, align 8
  %199 = icmp ne ptr %198, null
  br i1 %199, label %200, label %203

200:                                              ; preds = %196
  %201 = getelementptr inbounds %struct.GrayOnlyParams, ptr %16, i32 0, i32 1
  %202 = load ptr, ptr %201, align 8
  call void @cmsFreeToneCurve(ptr noundef %202)
  br label %203

203:                                              ; preds = %200, %196
  %204 = load ptr, ptr %17, align 8
  %205 = icmp ne ptr %204, null
  br i1 %205, label %206, label %208

206:                                              ; preds = %203
  %207 = load ptr, ptr %17, align 8
  call void @cmsPipelineFree(ptr noundef %207)
  br label %208

208:                                              ; preds = %206, %203
  store ptr null, ptr %8, align 8
  br label %209

209:                                              ; preds = %208, %183, %103, %89, %31
  %210 = load ptr, ptr %8, align 8
  ret ptr %210
}