; Function Attrs: nounwind uwtable
define internal ptr @BlackPreservingKOnlyIntents(ptr noundef %0, i32 noundef %1, ptr nocapture noundef readonly %2, ptr noundef %3, ptr noundef %4, ptr noundef %5, i32 noundef %6) #0 {
  %8 = alloca %struct.GrayOnlyParams, align 8
  %9 = alloca [256 x i32], align 16
  %10 = add i32 %1, -256
  %or.cond = icmp ult i32 %10, -255
  br i1 %or.cond, label %71, label %.lr.ph.preheader

.lr.ph.preheader:                                 ; preds = %7
  %wide.trip.count = zext nneg i32 %1 to i64
  br label %.lr.ph

.lr.ph:                                           ; preds = %.lr.ph.preheader, %TranslateNonICCIntents.exit
  %indvars.iv = phi i64 [ 0, %.lr.ph.preheader ], [ %indvars.iv.next, %TranslateNonICCIntents.exit ]
  %11 = getelementptr inbounds i32, ptr %2, i64 %indvars.iv
  %12 = load i32, ptr %11, align 4
  %switch.tableidx = add i32 %12, -10
  %13 = icmp ult i32 %switch.tableidx, 6
  br i1 %13, label %switch.lookup, label %TranslateNonICCIntents.exit

switch.lookup:                                    ; preds = %.lr.ph
  %14 = zext nneg i32 %switch.tableidx to i64
  %switch.gep = getelementptr inbounds [6 x i32], ptr @switch.table.BlackPreservingKPlaneIntents, i64 0, i64 %14
  %switch.load = load i32, ptr %switch.gep, align 4
  br label %TranslateNonICCIntents.exit

TranslateNonICCIntents.exit:                      ; preds = %.lr.ph, %switch.lookup
  %.0.i = phi i32 [ %switch.load, %switch.lookup ], [ %12, %.lr.ph ]
  %15 = getelementptr inbounds [256 x i32], ptr %9, i64 0, i64 %indvars.iv
  store i32 %.0.i, ptr %15, align 4
  %indvars.iv.next = add nuw nsw i64 %indvars.iv, 1
  %exitcond.not = icmp eq i64 %indvars.iv.next, %wide.trip.count
  br i1 %exitcond.not, label %.preheader78, label %.lr.ph, !llvm.loop !17

.preheader78:                                     ; preds = %TranslateNonICCIntents.exit, %is_cmyk_devicelink.exit
  %.064.in = phi i32 [ %.064, %is_cmyk_devicelink.exit ], [ %1, %TranslateNonICCIntents.exit ]
  %.064 = add nsw i32 %.064.in, -1
  %.pn = zext i32 %.064 to i64
  %.062.in = getelementptr inbounds ptr, ptr %3, i64 %.pn
  %.062 = load ptr, ptr %.062.in, align 8
  %16 = tail call i32 @cmsGetDeviceClass(ptr noundef %.062) #7
  %17 = icmp eq i32 %16, 1818848875
  br i1 %17, label %18, label %is_cmyk_devicelink.exit.thread

18:                                               ; preds = %.preheader78
  %19 = tail call i32 @cmsGetColorSpace(ptr noundef %.062) #7
  %20 = icmp eq i32 %19, 1129142603
  br i1 %20, label %is_cmyk_devicelink.exit, label %is_cmyk_devicelink.exit.thread

is_cmyk_devicelink.exit:                          ; preds = %18
  %21 = tail call i32 @cmsGetColorSpace(ptr noundef %.062) #7
  %22 = icmp ne i32 %21, 1129142603
  %23 = icmp ult i32 %.064, 2
  %or.cond3 = or i1 %23, %22
  br i1 %or.cond3, label %is_cmyk_devicelink.exit.thread, label %.preheader78, !llvm.loop !18

is_cmyk_devicelink.exit.thread:                   ; preds = %.preheader78, %18, %is_cmyk_devicelink.exit
  %24 = load ptr, ptr %3, align 8
  %25 = tail call i32 @cmsGetColorSpace(ptr noundef %24) #7
  %.not = icmp eq i32 %25, 1129142603
  br i1 %.not, label %26, label %32

26:                                               ; preds = %is_cmyk_devicelink.exit.thread
  %27 = tail call i32 @cmsGetColorSpace(ptr noundef %.062) #7
  %28 = icmp eq i32 %27, 1129142603
  br i1 %28, label %34, label %29

29:                                               ; preds = %26
  %30 = tail call i32 @cmsGetDeviceClass(ptr noundef %.062) #7
  %31 = icmp eq i32 %30, 1886549106
  br i1 %31, label %34, label %32

32:                                               ; preds = %29, %is_cmyk_devicelink.exit.thread
  %33 = call ptr @DefaultICCintents(ptr noundef %0, i32 noundef %1, ptr noundef nonnull %9, ptr noundef nonnull %3, ptr noundef %4, ptr noundef %5, i32 noundef %6)
  br label %71

34:                                               ; preds = %29, %26
  %35 = tail call ptr @cmsPipelineAlloc(ptr noundef %0, i32 noundef 4, i32 noundef 4) #7
  %36 = icmp eq ptr %35, null
  br i1 %36, label %71, label %37

37:                                               ; preds = %34
  %38 = getelementptr inbounds i8, ptr %8, i64 8
  store i64 0, ptr %38, align 8
  %39 = call ptr @DefaultICCintents(ptr noundef %0, i32 noundef %.064.in, ptr noundef nonnull %9, ptr noundef nonnull %3, ptr noundef %4, ptr noundef %5, i32 noundef %6)
  store ptr %39, ptr %8, align 8
  %40 = icmp eq ptr %39, null
  br i1 %40, label %.thread, label %41

41:                                               ; preds = %37
  %42 = call ptr @_cmsBuildKToneCurve(ptr noundef %0, i32 noundef 4096, i32 noundef %.064.in, ptr noundef nonnull %9, ptr noundef nonnull %3, ptr noundef %4, ptr noundef %5, i32 noundef %6) #7
  %43 = getelementptr inbounds i8, ptr %8, i64 8
  store ptr %42, ptr %43, align 8
  %44 = icmp eq ptr %42, null
  br i1 %44, label %.loopexit, label %45

45:                                               ; preds = %41
  %46 = call i32 @_cmsReasonableGridpointsByColorspace(i32 noundef 1129142603, i32 noundef %6) #7
  %47 = call ptr @cmsStageAllocCLut16bit(ptr noundef %0, i32 noundef %46, i32 noundef 4, i32 noundef 4, ptr noundef null) #7
  %48 = icmp eq ptr %47, null
  br i1 %48, label %.loopexit, label %49

49:                                               ; preds = %45
  %50 = call i32 @cmsPipelineInsertStage(ptr noundef nonnull %35, i32 noundef 0, ptr noundef nonnull %47) #7
  %.not71 = icmp eq i32 %50, 0
  br i1 %.not71, label %.loopexit, label %51

51:                                               ; preds = %49
  %52 = call i32 @cmsStageSampleCLut16bit(ptr noundef nonnull %47, ptr noundef nonnull @BlackPreservingGrayOnlySampler, ptr noundef nonnull %8, i32 noundef 0) #7
  %.not72 = icmp eq i32 %52, 0
  br i1 %.not72, label %.loopexit, label %.preheader

.preheader:                                       ; preds = %51
  %53 = icmp ult i32 %.064.in, %1
  br i1 %53, label %.lr.ph82.preheader, label %._crit_edge

.lr.ph82.preheader:                               ; preds = %.preheader
  %54 = zext i32 %.064.in to i64
  br label %.lr.ph82

55:                                               ; preds = %62
  %indvars.iv.next87 = add nuw nsw i64 %indvars.iv86, 1
  %lftr.wideiv = trunc i64 %indvars.iv.next87 to i32
  %exitcond89.not = icmp eq i32 %lftr.wideiv, %1
  br i1 %exitcond89.not, label %._crit_edge, label %.lr.ph82, !llvm.loop !19

.lr.ph82:                                         ; preds = %.lr.ph82.preheader, %55
  %indvars.iv86 = phi i64 [ %54, %.lr.ph82.preheader ], [ %indvars.iv.next87, %55 ]
  %56 = getelementptr inbounds ptr, ptr %3, i64 %indvars.iv86
  %57 = load ptr, ptr %56, align 8
  %58 = getelementptr inbounds [256 x i32], ptr %9, i64 0, i64 %indvars.iv86
  %59 = load i32, ptr %58, align 4
  %60 = call ptr @_cmsReadDevicelinkLUT(ptr noundef %57, i32 noundef %59) #7
  %61 = icmp eq ptr %60, null
  br i1 %61, label %.loopexit, label %62

62:                                               ; preds = %.lr.ph82
  %63 = call i32 @cmsPipelineCat(ptr noundef nonnull %35, ptr noundef nonnull %60) #7
  %.not73 = icmp eq i32 %63, 0
  br i1 %.not73, label %.loopexit, label %55

._crit_edge:                                      ; preds = %55, %.preheader
  %64 = load ptr, ptr %8, align 8
  call void @cmsPipelineFree(ptr noundef %64) #7
  %65 = load ptr, ptr %43, align 8
  call void @cmsFreeToneCurve(ptr noundef %65) #7
  br label %71

.loopexit:                                        ; preds = %62, %.lr.ph82, %51, %49, %45, %41
  %.pr = load ptr, ptr %8, align 8
  %.not74 = icmp eq ptr %.pr, null
  br i1 %.not74, label %.thread, label %66

66:                                               ; preds = %.loopexit
  call void @cmsPipelineFree(ptr noundef nonnull %.pr) #7
  br label %.thread

.thread:                                          ; preds = %37, %66, %.loopexit
  %67 = getelementptr inbounds i8, ptr %8, i64 8
  %68 = load ptr, ptr %67, align 8
  %.not75 = icmp eq ptr %68, null
  br i1 %.not75, label %70, label %69

69:                                               ; preds = %.thread
  call void @cmsFreeToneCurve(ptr noundef nonnull %68) #7
  br label %70

70:                                               ; preds = %.thread, %69
  call void @cmsPipelineFree(ptr noundef nonnull %35) #7
  br label %71

71:                                               ; preds = %34, %7, %70, %._crit_edge, %32
  %.0 = phi ptr [ %33, %32 ], [ null, %70 ], [ %35, %._crit_edge ], [ null, %7 ], [ null, %34 ]
  ret ptr %.0
}